target datalayout = "e-m:e-p270:32:32-p271:32:32-p272:64:64-i64:64-i128:128-f80:128-n8:16:32:64-S128"
target triple = "x86_64-pc-linux-gnu"

; Function Attrs: nounwind uwtable
define dso_local ptr @ziplistDelete(ptr noundef %0, ptr noundef %1) #0 {
  %3 = alloca ptr, align 8
  %4 = alloca ptr, align 8
  %5 = alloca i64, align 8
  store ptr %0, ptr %3, align 8, !tbaa !5
  store ptr %1, ptr %4, align 8, !tbaa !35
  call void @llvm.lifetime.start.p0(i64 8, ptr %5) #11
  %6 = load ptr, ptr %4, align 8, !tbaa !35
  %7 = load ptr, ptr %6, align 8, !tbaa !5
  %8 = load ptr, ptr %3, align 8, !tbaa !5
  %9 = ptrtoint ptr %7 to i64
  %10 = ptrtoint ptr %8 to i64
  %11 = sub i64 %9, %10
  store i64 %11, ptr %5, align 8, !tbaa !10
  %12 = load ptr, ptr %3, align 8, !tbaa !5
  %13 = load ptr, ptr %4, align 8, !tbaa !35
  %14 = load ptr, ptr %13, align 8, !tbaa !5
  %15 = call ptr @__ziplistDelete(ptr noundef %12, ptr noundef %14, i32 noundef 1)
  store ptr %15, ptr %3, align 8, !tbaa !5
  %16 = load ptr, ptr %3, align 8, !tbaa !5
  %17 = load i64, ptr %5, align 8, !tbaa !10
  %18 = getelementptr inbounds nuw i8, ptr %16, i64 %17
  %19 = load ptr, ptr %4, align 8, !tbaa !35
  store ptr %18, ptr %19, align 8, !tbaa !5
  %20 = load ptr, ptr %3, align 8, !tbaa !5
  call void @llvm.lifetime.end.p0(i64 8, ptr %5) #11
  ret ptr %20
}