; Function Attrs: nounwind uwtable
define dso_local noundef ptr @ziplistDelete(ptr noundef %0, ptr noundef captures(none) %1) local_unnamed_addr #5 {
  %3 = load ptr, ptr %1, align 8, !tbaa !32
  %4 = ptrtoint ptr %3 to i64
  %5 = ptrtoint ptr %0 to i64
  %6 = sub i64 %4, %5
  %7 = tail call ptr @__ziplistDelete(ptr noundef %0, ptr noundef %3, i32 noundef 1)
  %8 = getelementptr inbounds nuw i8, ptr %7, i64 %6
  store ptr %8, ptr %1, align 8, !tbaa !32
  ret ptr %7
}